; Function Attrs: mustprogress uwtable
define void @_ZN7mitsuba6Logger15clear_appendersEv(ptr nocapture noundef nonnull readonly align 8 dereferenceable(24) %0) local_unnamed_addr #0 align 2 personality ptr @__gxx_personality_v0 {
  %2 = getelementptr inbounds i8, ptr %0, i64 16
  %3 = load ptr, ptr %2, align 8
  tail call void @_ZNSt3__15mutex4lockEv(ptr noundef nonnull align 8 dereferenceable(40) %3)
  %4 = load ptr, ptr %2, align 8
  %5 = getelementptr inbounds i8, ptr %4, i64 48
  %6 = getelementptr inbounds i8, ptr %4, i64 56
  %7 = load ptr, ptr %6, align 8
  %8 = load ptr, ptr %5, align 8
  %.not6.i.i.i = icmp eq ptr %7, %8
  br i1 %.not6.i.i.i, label %_ZNSt3__16vectorIN7mitsuba3refINS1_8AppenderEEENS_9allocatorIS4_EEE5clearB8ne190000Ev.exit, label %.lr.ph.i.i.i

.lr.ph.i.i.i:                                     ; preds = %1, %_ZNSt3__116allocator_traitsINS_9allocatorIN7mitsuba3refINS2_8AppenderEEEEEE7destroyB8ne190000IS5_TnNS_9enable_ifIXsr13__has_destroyIS6_PT_EE5valueEiE4typeELi0EEEvRS6_SB_.exit.i.i.i
  %.07.i.i.i = phi ptr [ %9, %_ZNSt3__116allocator_traitsINS_9allocatorIN7mitsuba3refINS2_8AppenderEEEEEE7destroyB8ne190000IS5_TnNS_9enable_ifIXsr13__has_destroyIS6_PT_EE5valueEiE4typeELi0EEEvRS6_SB_.exit.i.i.i ], [ %7, %1 ]
  %9 = getelementptr inbounds i8, ptr %.07.i.i.i, i64 -8
  %10 = load ptr, ptr %9, align 8
  %.not.i.i.i.i.i.i = icmp eq ptr %10, null
  br i1 %.not.i.i.i.i.i.i, label %_ZNSt3__116allocator_traitsINS_9allocatorIN7mitsuba3refINS2_8AppenderEEEEEE7destroyB8ne190000IS5_TnNS_9enable_ifIXsr13__has_destroyIS6_PT_EE5valueEiE4typeELi0EEEvRS6_SB_.exit.i.i.i, label %11

11:                                               ; preds = %.lr.ph.i.i.i
  tail call void @_ZNK7mitsuba6Object7dec_refEb(ptr noundef nonnull align 8 dereferenceable(12) %10, i1 noundef zeroext true) #21
  br label %_ZNSt3__116allocator_traitsINS_9allocatorIN7mitsuba3refINS2_8AppenderEEEEEE7destroyB8ne190000IS5_TnNS_9enable_ifIXsr13__has_destroyIS6_PT_EE5valueEiE4typeELi0EEEvRS6_SB_.exit.i.i.i

_ZNSt3__116allocator_traitsINS_9allocatorIN7mitsuba3refINS2_8AppenderEEEEEE7destroyB8ne190000IS5_TnNS_9enable_ifIXsr13__has_destroyIS6_PT_EE5valueEiE4typeELi0EEEvRS6_SB_.exit.i.i.i: ; preds = %11, %.lr.ph.i.i.i
  %.not.i.i.i = icmp eq ptr %9, %8
  br i1 %.not.i.i.i, label %_ZNSt3__16vectorIN7mitsuba3refINS1_8AppenderEEENS_9allocatorIS4_EEE5clearB8ne190000Ev.exit, label %.lr.ph.i.i.i

_ZNSt3__16vectorIN7mitsuba3refINS1_8AppenderEEENS_9allocatorIS4_EEE5clearB8ne190000Ev.exit: ; preds = %_ZNSt3__116allocator_traitsINS_9allocatorIN7mitsuba3refINS2_8AppenderEEEEEE7destroyB8ne190000IS5_TnNS_9enable_ifIXsr13__has_destroyIS6_PT_EE5valueEiE4typeELi0EEEvRS6_SB_.exit.i.i.i, %1
  store ptr %8, ptr %6, align 8
  tail call void @_ZNSt3__15mutex6unlockEv(ptr noundef nonnull align 8 dereferenceable(40) %3) #21
  ret void
}